target datalayout = "e-m:e-p270:32:32-p271:32:32-p272:64:64-i64:64-i128:128-f80:128-n8:16:32:64-S128"
target triple = "x86_64-pc-linux-gnu"

%struct.t_commrec = type <{ i8, [3 x i8], i32, i32, i32, i32, [4 x i8], ptr, ptr, i32, [4 x i8], ptr, i32, i32, %struct.gmx_nodecomm_t, %"class.std::unique_ptr.66", %"class.std::unique_ptr.74", ptr, ptr, i32, [4 x i8] }>
%struct.gmx_nodecomm_t = type { i8, ptr, i32, ptr }
%"class.std::unique_ptr.66" = type { %"struct.std::__uniq_ptr_data.67" }
%"struct.std::__uniq_ptr_data.67" = type { %"class.std::__uniq_ptr_impl.68" }
%"class.std::__uniq_ptr_impl.68" = type { %"class.std::tuple.69" }
%"class.std::tuple.69" = type { %"struct.std::_Tuple_impl.70" }
%"struct.std::_Tuple_impl.70" = type { %"struct.std::_Head_base.73" }
%"struct.std::_Head_base.73" = type { ptr }
%"class.std::unique_ptr.74" = type { %"struct.std::__uniq_ptr_data.75" }
%"struct.std::__uniq_ptr_data.75" = type { %"class.std::__uniq_ptr_impl.76" }
%"class.std::__uniq_ptr_impl.76" = type { %"class.std::tuple.77" }
%"class.std::tuple.77" = type { %"struct.std::_Tuple_impl.78" }
%"struct.std::_Tuple_impl.78" = type { %"struct.std::_Head_base.81" }
%"struct.std::_Head_base.81" = type { ptr }
%"class.gmx::ArrayRef.93" = type { %"struct.gmx::ArrayRefIter.94", %"struct.gmx::ArrayRefIter.94" }
%"struct.gmx::ArrayRefIter.94" = type { ptr }

; Function Attrs: mustprogress nounwind uwtable
define linkonce_odr noundef nonnull align 8 dereferenceable(8) ptr @_ZNK3gmx12ArrayRefIterIKdEdeEv(ptr noundef nonnull align 8 dereferenceable(8) %0) #1 comdat align 2 {
  %2 = alloca ptr, align 8
  store ptr %0, ptr %2, align 8, !tbaa !291
  %3 = load ptr, ptr %2, align 8
  %4 = getelementptr inbounds nuw %"struct.gmx::ArrayRefIter.94", ptr %3, i32 0, i32 0
  %5 = load ptr, ptr %4, align 8, !tbaa !293
  ret ptr %5
}

; Function Attrs: mustprogress nounwind uwtable
define linkonce_odr noundef nonnull align 8 dereferenceable(8) ptr @_ZN3gmx12ArrayRefIterIKdEpLEl(ptr noundef nonnull align 8 dereferenceable(8) %0, i64 noundef %1) #1 comdat align 2 {
  %3 = alloca ptr, align 8
  %4 = alloca i64, align 8
  store ptr %0, ptr %3, align 8, !tbaa !291
  store i64 %1, ptr %4, align 8, !tbaa !138
  %5 = load ptr, ptr %3, align 8
  %6 = load i64, ptr %4, align 8, !tbaa !138
  %7 = getelementptr inbounds nuw %"struct.gmx::ArrayRefIter.94", ptr %5, i32 0, i32 0
  %8 = load ptr, ptr %7, align 8, !tbaa !293
  %9 = getelementptr inbounds double, ptr %8, i64 %6
  store ptr %9, ptr %7, align 8, !tbaa !293
  ret ptr %5
}

; Function Attrs: mustprogress nounwind uwtable
define linkonce_odr noundef nonnull align 8 dereferenceable(8) ptr @_ZNK3gmx5boost14stl_interfaces2v118iterator_interfaceINS_12ArrayRefIterIKdEESt26random_access_iterator_tagS5_RS5_PS5_lvE7derivedEv(ptr noundef nonnull align 1 dereferenceable(1) %0) #1 comdat align 2 {
  %2 = alloca ptr, align 8
  store ptr %0, ptr %2, align 8, !tbaa !289
  %3 = load ptr, ptr %2, align 8
  ret ptr %3
}

; Function Attrs: mustprogress nounwind uwtable
define linkonce_odr noundef nonnull align 8 dereferenceable(8) ptr @_ZNK3gmx5boost14stl_interfaces2v118iterator_interfaceINS_12ArrayRefIterIKdEESt26random_access_iterator_tagS5_RS5_PS5_lvEixIS6_EEDTcmpLclsr3stdE7declvalIRT_EEfp_declsr3stdE7declvalISD_EEEl(ptr noundef nonnull align 1 dereferenceable(1) %0, i64 noundef %1) #1 comdat align 2 {
  %3 = alloca ptr, align 8
  %4 = alloca i64, align 8
  %5 = alloca %"struct.gmx::ArrayRefIter.94", align 8
  store ptr %0, ptr %3, align 8, !tbaa !289
  store i64 %1, ptr %4, align 8, !tbaa !138
  %6 = load ptr, ptr %3, align 8
  call void @llvm.lifetime.start.p0(i64 8, ptr %5) #19
  %7 = call noundef nonnull align 8 dereferenceable(8) ptr @_ZNK3gmx5boost14stl_interfaces2v118iterator_interfaceINS_12ArrayRefIterIKdEESt26random_access_iterator_tagS5_RS5_PS5_lvE7derivedEv(ptr noundef nonnull align 1 dereferenceable(1) %6) #19
  call void @llvm.memcpy.p0.p0.i64(ptr align 8 %5, ptr align 8 %7, i64 8, i1 false)
  %8 = load i64, ptr %4, align 8, !tbaa !138
  %9 = call noundef nonnull align 8 dereferenceable(8) ptr @_ZN3gmx12ArrayRefIterIKdEpLEl(ptr noundef nonnull align 8 dereferenceable(8) %5, i64 noundef %8) #19
  %10 = call noundef nonnull align 8 dereferenceable(8) ptr @_ZNK3gmx12ArrayRefIterIKdEdeEv(ptr noundef nonnull align 8 dereferenceable(8) %5) #19
  call void @llvm.lifetime.end.p0(i64 8, ptr %5) #19
  ret ptr %10
}

; Function Attrs: mustprogress nounwind uwtable
define linkonce_odr noundef nonnull align 8 dereferenceable(8) ptr @_ZNK3gmx8ArrayRefIKdEixEm(ptr noundef nonnull align 8 dereferenceable(16) %0, i64 noundef %1) #1 comdat align 2 {
  %3 = alloca ptr, align 8
  %4 = alloca i64, align 8
  store ptr %0, ptr %3, align 8, !tbaa !287
  store i64 %1, ptr %4, align 8, !tbaa !138
  %5 = load ptr, ptr %3, align 8
  %6 = getelementptr inbounds nuw %"class.gmx::ArrayRef.93", ptr %5, i32 0, i32 0
  %7 = load i64, ptr %4, align 8, !tbaa !138
  %8 = call noundef nonnull align 8 dereferenceable(8) ptr @_ZNK3gmx5boost14stl_interfaces2v118iterator_interfaceINS_12ArrayRefIterIKdEESt26random_access_iterator_tagS5_RS5_PS5_lvEixIS6_EEDTcmpLclsr3stdE7declvalIRT_EEfp_declsr3stdE7declvalISD_EEEl(ptr noundef nonnull align 1 dereferenceable(1) %6, i64 noundef %7) #19
  ret ptr %8
}

; Function Attrs: mustprogress nounwind uwtable
define linkonce_odr noundef float @_ZN3gmx6squareIfEET_S1_(float noundef %0) #1 comdat {
  %2 = alloca float, align 4
  store float %0, ptr %2, align 4, !tbaa !140
  %3 = load float, ptr %2, align 4, !tbaa !140
  %4 = load float, ptr %2, align 4, !tbaa !140
  %5 = fmul float %3, %4
  ret float %5
}

; Function Attrs: mustprogress uwtable
define noundef float @_Z23ewald_charge_correctionPK9t_commrecffN3gmx8ArrayRefIKdEEfPA3_KfPfPA3_f(ptr noundef %0, float noundef %1, float noundef %2, ptr %3, ptr %4, float noundef %5, ptr noundef %6, ptr noundef %7, ptr noundef %8) #0 {
  %10 = alloca %"class.gmx::ArrayRef.93", align 8
  %11 = alloca ptr, align 8
  %12 = alloca float, align 4
  %13 = alloca float, align 4
  %14 = alloca float, align 4
  %15 = alloca ptr, align 8
  %16 = alloca ptr, align 8
  %17 = alloca ptr, align 8
  %18 = alloca float, align 4
  %19 = alloca float, align 4
  %20 = alloca float, align 4
  %21 = alloca float, align 4
  %22 = alloca float, align 4
  %23 = alloca float, align 4
  %24 = alloca i32, align 4
  %25 = getelementptr inbounds nuw { ptr, ptr }, ptr %10, i32 0, i32 0
  store ptr %3, ptr %25, align 8
  %26 = getelementptr inbounds nuw { ptr, ptr }, ptr %10, i32 0, i32 1
  store ptr %4, ptr %26, align 8
  store ptr %0, ptr %11, align 8, !tbaa !143
  store float %1, ptr %12, align 4, !tbaa !140
  store float %2, ptr %13, align 4, !tbaa !140
  store float %5, ptr %14, align 4, !tbaa !140
  store ptr %6, ptr %15, align 8, !tbaa !142
  store ptr %7, ptr %16, align 8, !tbaa !142
  store ptr %8, ptr %17, align 8, !tbaa !142
  call void @llvm.lifetime.start.p0(i64 4, ptr %18) #19
  store float 0.000000e+00, ptr %18, align 4, !tbaa !140
  %27 = load ptr, ptr %11, align 8, !tbaa !143
  %28 = getelementptr inbounds nuw %struct.t_commrec, ptr %27, i32 0, i32 13
  %29 = load i32, ptr %28, align 4, !tbaa !284
  %30 = icmp eq i32 %29, 0
  br i1 %30, label %36, label %31

31:                                               ; preds = %9
  %32 = load ptr, ptr %11, align 8, !tbaa !143
  %33 = getelementptr inbounds nuw %struct.t_commrec, ptr %32, i32 0, i32 12
  %34 = load i32, ptr %33, align 8, !tbaa !145
  %35 = icmp sgt i32 %34, 1
  br i1 %35, label %120, label %36

36:                                               ; preds = %31, %9
  call void @llvm.lifetime.start.p0(i64 4, ptr %19) #19
  %37 = load ptr, ptr %15, align 8, !tbaa !142
  %38 = getelementptr inbounds [3 x float], ptr %37, i64 0
  %39 = getelementptr inbounds [3 x float], ptr %38, i64 0, i64 0
  %40 = load float, ptr %39, align 4, !tbaa !140
  %41 = load ptr, ptr %15, align 8, !tbaa !142
  %42 = getelementptr inbounds [3 x float], ptr %41, i64 1
  %43 = getelementptr inbounds [3 x float], ptr %42, i64 0, i64 1
  %44 = load float, ptr %43, align 4, !tbaa !140
  %45 = fmul float %40, %44
  %46 = load ptr, ptr %15, align 8, !tbaa !142
  %47 = getelementptr inbounds [3 x float], ptr %46, i64 2
  %48 = getelementptr inbounds [3 x float], ptr %47, i64 0, i64 2
  %49 = load float, ptr %48, align 4, !tbaa !140
  %50 = fmul float %45, %49
  store float %50, ptr %19, align 4, !tbaa !140
  call void @llvm.lifetime.start.p0(i64 4, ptr %20) #19
  %51 = load float, ptr %12, align 4, !tbaa !140
  %52 = fpext float %51 to double
  %53 = fmul double %52, 2.000000e+00
  %54 = load float, ptr %19, align 4, !tbaa !140
  %55 = fpext float %54 to double
  %56 = fmul double %53, %55
  %57 = load float, ptr %19, align 4, !tbaa !140
  %58 = fpext float %57 to double
  %59 = fmul double %56, %58
  %60 = load float, ptr %13, align 4, !tbaa !140
  %61 = call noundef float @_ZN3gmx6squareIfEET_S1_(float noundef %60)
  %62 = fpext float %61 to double
  %63 = fmul double %59, %62
  %64 = fdiv double 0x407B47A8662AAAAF, %63
  %65 = fptrunc double %64 to float
  store float %65, ptr %20, align 4, !tbaa !140
  call void @llvm.lifetime.start.p0(i64 4, ptr %21) #19
  %66 = call noundef nonnull align 8 dereferenceable(8) ptr @_ZNK3gmx8ArrayRefIKdEixEm(ptr noundef nonnull align 8 dereferenceable(16) %10, i64 noundef 0)
  %67 = load double, ptr %66, align 8, !tbaa !285
  %68 = call noundef nonnull align 8 dereferenceable(8) ptr @_ZNK3gmx8ArrayRefIKdEixEm(ptr noundef nonnull align 8 dereferenceable(16) %10, i64 noundef 0)
  %69 = load double, ptr %68, align 8, !tbaa !285
  %70 = fmul double %67, %69
  %71 = fptrunc double %70 to float
  store float %71, ptr %21, align 4, !tbaa !140
  call void @llvm.lifetime.start.p0(i64 4, ptr %22) #19
  %72 = call noundef nonnull align 8 dereferenceable(8) ptr @_ZNK3gmx8ArrayRefIKdEixEm(ptr noundef nonnull align 8 dereferenceable(16) %10, i64 noundef 1)
  %73 = load double, ptr %72, align 8, !tbaa !285
  %74 = call noundef nonnull align 8 dereferenceable(8) ptr @_ZNK3gmx8ArrayRefIKdEixEm(ptr noundef nonnull align 8 dereferenceable(16) %10, i64 noundef 1)
  %75 = load double, ptr %74, align 8, !tbaa !285
  %76 = fmul double %73, %75
  %77 = fptrunc double %76 to float
  store float %77, ptr %22, align 4, !tbaa !140
  call void @llvm.lifetime.start.p0(i64 4, ptr %23) #19
  %78 = load float, ptr %21, align 4, !tbaa !140
  %79 = load float, ptr %14, align 4, !tbaa !140
  %80 = fsub float 1.000000e+00, %79
  %81 = load float, ptr %22, align 4, !tbaa !140
  %82 = load float, ptr %14, align 4, !tbaa !140
  %83 = fmul float %81, %82
  %84 = call float @llvm.fmuladd.f32(float %78, float %80, float %83)
  %85 = load float, ptr %20, align 4, !tbaa !140
  %86 = fmul float %84, %85
  store float %86, ptr %23, align 4, !tbaa !140
  %87 = load float, ptr %19, align 4, !tbaa !140
  %88 = fneg float %87
  %89 = load float, ptr %23, align 4, !tbaa !140
  %90 = fmul float %88, %89
  store float %90, ptr %18, align 4, !tbaa !140
  %91 = load float, ptr %19, align 4, !tbaa !140
  %92 = fneg float %91
  %93 = load float, ptr %22, align 4, !tbaa !140
  %94 = load float, ptr %21, align 4, !tbaa !140
  %95 = fsub float %93, %94
  %96 = fmul float %92, %95
  %97 = load float, ptr %20, align 4, !tbaa !140
  %98 = load ptr, ptr %16, align 8, !tbaa !142
  %99 = load float, ptr %98, align 4, !tbaa !140
  %100 = call float @llvm.fmuladd.f32(float %96, float %97, float %99)
  store float %100, ptr %98, align 4, !tbaa !140
  call void @llvm.lifetime.start.p0(i64 4, ptr %24) #19
  store i32 0, ptr %24, align 4, !tbaa !119
  br label %101

101:                                              ; preds = %116, %36
  %102 = load i32, ptr %24, align 4, !tbaa !119
  %103 = icmp slt i32 %102, 3
  br i1 %103, label %105, label %104

104:                                              ; preds = %101
  call void @llvm.lifetime.end.p0(i64 4, ptr %24) #19
  br label %119

105:                                              ; preds = %101
  %106 = load float, ptr %23, align 4, !tbaa !140
  %107 = load ptr, ptr %17, align 8, !tbaa !142
  %108 = load i32, ptr %24, align 4, !tbaa !119
  %109 = sext i32 %108 to i64
  %110 = getelementptr inbounds [3 x float], ptr %107, i64 %109
  %111 = load i32, ptr %24, align 4, !tbaa !119
  %112 = sext i32 %111 to i64
  %113 = getelementptr inbounds [3 x float], ptr %110, i64 0, i64 %112
  %114 = load float, ptr %113, align 4, !tbaa !140
  %115 = fadd float %114, %106
  store float %115, ptr %113, align 4, !tbaa !140
  br label %116

116:                                              ; preds = %105
  %117 = load i32, ptr %24, align 4, !tbaa !119
  %118 = add nsw i32 %117, 1
  store i32 %118, ptr %24, align 4, !tbaa !119
  br label %101, !llvm.loop !286

119:                                              ; preds = %104
  call void @llvm.lifetime.end.p0(i64 4, ptr %23) #19
  call void @llvm.lifetime.end.p0(i64 4, ptr %22) #19
  call void @llvm.lifetime.end.p0(i64 4, ptr %21) #19
  call void @llvm.lifetime.end.p0(i64 4, ptr %20) #19
  call void @llvm.lifetime.end.p0(i64 4, ptr %19) #19
  br label %120

120:                                              ; preds = %119, %31
  %121 = load float, ptr %18, align 4, !tbaa !140
  call void @llvm.lifetime.end.p0(i64 4, ptr %18) #19
  ret float %121
}