; Function Attrs: mustprogress nofree norecurse nosync nounwind memory(argmem: readwrite) uwtable
define noundef float @_Z23ewald_charge_correctionPK9t_commrecffN3gmx8ArrayRefIKdEEfPA3_KfPfPA3_f(ptr noundef readonly captures(none) %0, float noundef %1, float noundef %2, ptr readonly captures(none) %3, ptr readnone captures(none) %4, float noundef %5, ptr noundef readonly captures(none) %6, ptr noundef captures(none) %7, ptr noundef captures(none) %8) local_unnamed_addr #17 {
  %10 = getelementptr inbounds nuw i8, ptr %0, i64 60
  %11 = load i32, ptr %10, align 4, !tbaa !171
  %12 = icmp eq i32 %11, 0
  br i1 %12, label %17, label %13

13:                                               ; preds = %9
  %14 = getelementptr inbounds nuw i8, ptr %0, i64 56
  %15 = load i32, ptr %14, align 8, !tbaa !116
  %16 = icmp sgt i32 %15, 1
  br i1 %16, label %.loopexit, label %17

17:                                               ; preds = %13, %9
  %18 = load float, ptr %6, align 4, !tbaa !134
  %19 = getelementptr inbounds nuw i8, ptr %6, i64 16
  %20 = load float, ptr %19, align 4, !tbaa !134
  %21 = fmul float %18, %20
  %22 = getelementptr inbounds nuw i8, ptr %6, i64 32
  %23 = load float, ptr %22, align 4, !tbaa !134
  %24 = fmul float %21, %23
  %25 = fpext float %1 to double
  %26 = fmul double %25, 2.000000e+00
  %27 = fpext float %24 to double
  %28 = fmul double %26, %27
  %29 = fmul double %28, %27
  %30 = fmul float %2, %2
  %31 = fpext float %30 to double
  %32 = fmul double %29, %31
  %33 = fdiv double 0x407B47A8662AAAAF, %32
  %34 = fptrunc double %33 to float
  %35 = load double, ptr %3, align 8, !tbaa !172
  %36 = fmul double %35, %35
  %37 = fptrunc double %36 to float
  %38 = getelementptr inbounds nuw i8, ptr %3, i64 8
  %39 = load double, ptr %38, align 8, !tbaa !172
  %40 = fmul double %39, %39
  %41 = fptrunc double %40 to float
  %42 = fsub float 1.000000e+00, %5
  %43 = fmul float %5, %41
  %44 = tail call float @llvm.fmuladd.f32(float %37, float %42, float %43)
  %45 = fmul float %44, %34
  %46 = fneg float %24
  %47 = fsub float %41, %37
  %48 = fmul float %47, %46
  %49 = load float, ptr %7, align 4, !tbaa !134
  %50 = tail call float @llvm.fmuladd.f32(float %48, float %34, float %49)
  store float %50, ptr %7, align 4, !tbaa !134
  br label %51

51:                                               ; preds = %17, %51
  %indvars.iv = phi i64 [ 0, %17 ], [ %indvars.iv.next, %51 ]
  %52 = getelementptr inbounds nuw [3 x float], ptr %8, i64 %indvars.iv, i64 %indvars.iv
  %53 = load float, ptr %52, align 4, !tbaa !134
  %54 = fadd float %45, %53
  store float %54, ptr %52, align 4, !tbaa !134
  %indvars.iv.next = add nuw nsw i64 %indvars.iv, 1
  %exitcond.not = icmp eq i64 %indvars.iv.next, 3
  br i1 %exitcond.not, label %.loopexit.loopexit, label %51, !llvm.loop !173

.loopexit.loopexit:                               ; preds = %51
  %55 = fmul float %45, %46
  br label %.loopexit

.loopexit:                                        ; preds = %.loopexit.loopexit, %13
  %.027 = phi float [ 0.000000e+00, %13 ], [ %55, %.loopexit.loopexit ]
  ret float %.027
}